(itwisted.persisted.dirdbm
Shelf
p1
(dp2
S'dname'
p3
S'/home/joel/Documents/redes-Mail-Server/mail_storage/Message-IDs'
p4
sS'_dnamePath'
p5
ccopy_reg
_reconstructor
p6
(ctwisted.python.filepath
FilePath
p7
c__builtin__
object
p8
NtRp9
(dp10
S'path'
p11
S'/home/joel/Documents/redes-Mail-Server/mail_storage/Message-IDs'
p12
sS'alwaysCreate'
p13
I00
sbsb.